c__builtin__
set
p0
((lp1
Vhttps://www.feemoo.com/file-887749.html
p2
aVhttps://www.feemoo.com/file-895151.html
p3
aVhttps://www.feemoo.com/file-902876.html
p4
aVhttps://www.feemoo.com/file-897069.html
p5
aVhttps://www.feemoo.com/file-907692.html
p6
aVhttps://www.feemoo.com/file-895146.html
p7
aVhttps://www.feemoo.com/file-898830.html
p8
aVhttps://www.feemoo.com/file-887737.html
p9
aVhttps://www.feemoo.com/file-921560.html
p10
aVhttps://www.feemoo.com/file-887764.html
p11
aVhttp://www.feimaott.com/file-873222.html
p12
aVhttps://www.feemoo.com/file-902875.html
p13
aVhttps://www.feemoo.com/file-887757.html
p14
aVhttps://www.feemoo.com/file-921551.html
p15
aVhttps://www.feemoo.com/file-924658.html
p16
aVhttps://www.feemoo.com/file-924128.html
p17
aVhttps://www.feemoo.com/file-916526.html
p18
aVhttps://www.feemoo.com/file-921559.html
p19
aVhttps://www.feemoo.com/file-898837.html
p20
aVhttps://www.feemoo.com/file-914040.html
p21
aVhttps://www.feemoo.com/file-897067.html
p22
aVhttp://www.feimaott.com/file-873225.html
p23
aVhttps://www.feemoo.com/file-921569.html
p24
aVhttps://www.feemoo.com/file-914049.html
p25
aVhttps://www.feemoo.com/file-921556.html
p26
aVhttps://www.feemoo.com/file-887747.html
p27
aVhttps://www.feemoo.com/file-895141.html
p28
aVhttps://www.feemoo.com/file-904591.html
p29
aVhttps://www.feemoo.com/file-910269.html
p30
aVhttps://www.feemoo.com/file-907678.html
p31
aVhttps://www.feemoo.com/file-924119.html
p32
aVhttps://www.feemoo.com/file-907680.html
p33
aVhttps://www.feemoo.com/file-898838.html
p34
aVhttps://www.feemoo.com/file-921562.html
p35
aVhttps://www.feemoo.com/file-901170.html
p36
aVhttps://www.feemoo.com/file-904597.html
p37
aVhttps://www.feemoo.com/file-901169.html
p38
aVhttps://www.feemoo.com/file-894346.html
p39
aVhttps://www.feemoo.com/file-894352.html
p40
aVhttps://www.feemoo.com/file-901172.html
p41
aVhttps://www.feemoo.com/file-907674.html
p42
aVhttps://www.feemoo.com/file-898827.html
p43
aVhttps://www.feemoo.com/file-901165.html
p44
aVhttps://www.feemoo.com/file-904594.html
p45
aVhttps://www.feemoo.com/file-924661.html
p46
aVhttps://www.feemoo.com/file-907695.html
p47
aVhttps://www.feemoo.com/file-904600.html
p48
aVhttps://www.feemoo.com/file-907694.html
p49
aVhttps://www.feemoo.com/file-926292.html
p50
aVhttps://www.feemoo.com/file-916528.html
p51
aVhttps://www.feemoo.com/file-921549.html
p52
aVhttps://www.feemoo.com/file-887772.html
p53
aVhttps://www.feemoo.com/file-904587.html
p54
aVhttps://www.feemoo.com/file-888539.html
p55
aVhttps://www.feemoo.com/file-898840.html
p56
aVhttps://www.feemoo.com/file-907684.html
p57
aVhttps://www.feemoo.com/file-926301.html
p58
aVhttps://www.feemoo.com/file-910270.html
p59
aVhttps://www.feemoo.com/file-895150.html
p60
aVhttps://www.feemoo.com/file-894348.html
p61
aVhttps://www.feemoo.com/file-887745.html
p62
aVhttps://www.feemoo.com/file-919563.html
p63
aVhttps://www.feemoo.com/file-907689.html
p64
aVhttps://www.feemoo.com/file-895152.html
p65
aVhttps://www.feemoo.com/file-926297.html
p66
aVhttps://www.feemoo.com/file-888535.html
p67
aVhttps://www.feemoo.com/file-916523.html
p68
aVhttps://www.feemoo.com/file-916537.html
p69
aVhttps://www.feemoo.com/file-907686.html
p70
aVhttps://www.feemoo.com/file-887768.html
p71
aVhttps://www.feemoo.com/file-914044.html
p72
aVhttps://www.feemoo.com/file-887748.html
p73
aVhttps://www.feemoo.com/file-910268.html
p74
aVhttps://www.feemoo.com/file-910274.html
p75
aVhttps://www.feemoo.com/file-914042.html
p76
aVhttps://www.feemoo.com/file-904598.html
p77
aVhttps://www.feemoo.com/file-898817.html
p78
aVhttps://www.feemoo.com/file-894350.html
p79
aVhttps://www.feemoo.com/file-887767.html
p80
aVhttps://www.feemoo.com/file-921550.html
p81
aVhttps://www.feemoo.com/file-926285.html
p82
aVhttps://www.feemoo.com/file-926295.html
p83
aVhttp://www.feimaott.com/file-873227.html
p84
aVhttps://www.feemoo.com/file-891246.html
p85
aVhttps://www.feemoo.com/file-921561.html
p86
aVhttps://www.feemoo.com/file-904596.html
p87
aVhttps://www.feemoo.com/file-895156.html
p88
aVhttps://www.feemoo.com/file-887729.html
p89
aVhttps://www.feemoo.com/file-926287.html
p90
aVhttps://www.feemoo.com/file-898843.html
p91
aVhttps://www.feemoo.com/file-901177.html
p92
aVhttps://www.feemoo.com/file-901175.html
p93
aVhttps://www.feemoo.com/file-887773.html
p94
aVhttps://www.feemoo.com/file-898844.html
p95
aVhttps://www.feemoo.com/file-924129.html
p96
aVhttps://www.feemoo.com/file-887750.html
p97
aVhttps://www.feemoo.com/file-901160.html
p98
aVhttps://www.feemoo.com/file-902862.html
p99
aVhttps://www.feemoo.com/file-887770.html
p100
aVhttps://www.feemoo.com/file-924123.html
p101
aVhttp://www.feimaott.com/file-873224.html
p102
aVhttps://www.feemoo.com/file-887769.html
p103
aVhttps://www.feemoo.com/file-887751.html
p104
aVhttps://www.feemoo.com/file-907698.html
p105
aVhttps://www.feemoo.com/file-898832.html
p106
aVhttps://www.feemoo.com/file-910271.html
p107
aVhttps://www.feemoo.com/file-894354.html
p108
aVhttps://www.feemoo.com/file-888534.html
p109
aVhttps://www.feemoo.com/file-916520.html
p110
aVhttps://www.feemoo.com/file-887743.html
p111
aVhttps://www.feemoo.com/file-904599.html
p112
aVhttps://www.feemoo.com/file-898835.html
p113
aVhttps://www.feemoo.com/file-910273.html
p114
aVhttps://www.feemoo.com/file-887776.html
p115
aVhttps://www.feemoo.com/file-926289.html
p116
aVhttps://www.feemoo.com/file-888537.html
p117
aVhttps://www.feemoo.com/file-898841.html
p118
aVhttps://www.feemoo.com/file-891250.html
p119
aVhttps://www.feemoo.com/file-891241.html
p120
aVhttps://www.feemoo.com/file-893050.html
p121
aVhttps://www.feemoo.com/file-887766.html
p122
aVhttps://www.feemoo.com/file-887728.html
p123
aVhttps://www.feemoo.com/file-898819.html
p124
aVhttps://www.feemoo.com/file-924115.html
p125
aVhttps://www.feemoo.com/file-924108.html
p126
aVhttps://www.feemoo.com/file-887760.html
p127
aVhttps://www.feemoo.com/file-914037.html
p128
aVhttps://www.feemoo.com/file-901173.html
p129
aV-887753.htmlhttps://www.feemoo.com/file
p130
aVhttps://www.feemoo.com/file-924116.html
p131
aVhttps://www.feemoo.com/file-919564.html
p132
aVhttps://www.feemoo.com/file-921555.html
p133
aVhttps://www.feemoo.com/file-916539.html
p134
aVhttps://www.feemoo.com/file-897076.html
p135
aVhttps://www.feemoo.com/file-916530.html
p136
aVhttps://www.feemoo.com/file-902867.html
p137
aVhttps://www.feemoo.com/file-926303.html
p138
aVhttps://www.feemoo.com/file-924109.html
p139
aVhttp://66yp.cc/file-1209167.html
p140
aVhttps://www.feemoo.com/file-887738.html
p141
aVhttps://www.feemoo.com/file-926296.html
p142
aVhttps://www.feemoo.com/file-895155.html
p143
aVhttps://www.feemoo.com/file-897071.html
p144
aVhttps://www.feemoo.com/file-907691.html
p145
aVhttps://www.feemoo.com/file-887732.html
p146
aVhttps://www.feemoo.com/file-914048.html
p147
aVhttp://www.feimaott.com/file-873216.html
p148
aVhttps://www.feemoo.com/file-926294.html
p149
aVhttps://www.feemoo.com/file-887771.html
p150
aVhttps://www.feemoo.com/file-924122.html
p151
aVhttps://www.feemoo.com/file-898831.html
p152
aVhttps://www.feemoo.com/file-902879.html
p153
aVhttps://www.feemoo.com/file-924131.html
p154
aVhttps://www.feemoo.com/file-887735.html
p155
aVhttps://www.feemoo.com/file-902880.html
p156
aVhttp://www.feimaott.com/file-873215.html
p157
aVhttps://www.feemoo.com/file-895153.html
p158
aVhttps://www.feemoo.com/file-904590.html
p159
aVhttps://www.feemoo.com/file-921564.html
p160
aVhttps://www.feemoo.com/file-907681.html
p161
aVhttps://www.feemoo.com/file-907701.html
p162
aVhttps://www.feemoo.com/file-921557.html
p163
aVhttps://www.feemoo.com/file-887736.html
p164
aVhttps://www.feemoo.com/file-907676.html
p165
aVhttps://www.feemoo.com/file-901162.html
p166
aVhttps://www.feemoo.com/file-888540.html
p167
aVhttps://www.feemoo.com/file-901168.html
p168
aVhttps://www.feemoo.com/file-895149.html
p169
aVhttps://www.feemoo.com/file-916525.html
p170
aVhttps://www.feemoo.com/file-898845.html
p171
aVhttps://www.feemoo.com/file-916529.html
p172
aVhttps://www.feemoo.com/file-914046.html
p173
aVhttps://www.feemoo.com/file-897073.html
p174
aVhttps://www.feemoo.com/file-902853.html
p175
aVhttps://www.feemoo.com/file-924132.html
p176
aVhttps://www.feemoo.com/file-891244.html
p177
aVhttps://www.feemoo.com/file-887762.html
p178
aVhttps://www.feemoo.com/file-887779.html
p179
aVhttps://www.feemoo.com/file-904592.html
p180
aVhttps://www.feemoo.com/file-907699.html
p181
aVhttps://www.feemoo.com/file-895145.html
p182
aVhttps://www.feemoo.com/file-898842.html
p183
aVhttps://www.feemoo.com/file-907673.html
p184
aVhttps://www.feemoo.com/file-901166.html
p185
aVhttps://www.feemoo.com/file-924117.html
p186
aVhttps://www.feemoo.com/file-896198.html
p187
aVhttps://www.feemoo.com/file-926286.html
p188
aVhttps://www.feemoo.com/file-921570.html
p189
aVhttps://www.feemoo.com/file-926284.html
p190
aVhttps://www.feemoo.com/file-893053.html
p191
aVhttps://www.feemoo.com/file-914041.html
p192
aVhttps://www.feemoo.com/file-897075.html
p193
aVhttps://www.feemoo.com/file-894344.html
p194
aVhttps://www.feemoo.com/file-916531.html
p195
aVhttps://www.feemoo.com/file-887734.html
p196
aVhttps://www.feemoo.com/file-898816.html
p197
aVhttps://www.feemoo.com/file-924125.html
p198
aVhttps://www.feemoo.com/file-904593.html
p199
aVhttps://www.feemoo.com/file-897074.html
p200
aVhttp://www.feimaott.com/file-873223.html
p201
aVhttps://www.feemoo.com/file-902865.html
p202
aVhttps://www.feemoo.com/file-904586.html
p203
aVhttps://www.feemoo.com/file-904595.html
p204
aVhttps://www.feemoo.com/file-887754.html
p205
aVhttps://www.feemoo.com/file-902878.html
p206
aVhttps://www.feemoo.com/file-924112.html
p207
aVhttps://www.feemoo.com/file-887777.html
p208
aVhttps://www.feemoo.com/file-916533.html
p209
aVhttps://www.feemoo.com/file-904588.html
p210
aVhttps://www.feemoo.com/file-907700.html
p211
aVhttps://www.feemoo.com/file-926300.html
p212
aVhttps://www.feemoo.com/file-914036.html
p213
aVhttps://www.feemoo.com/file-887775.html
p214
aVhttps://www.feemoo.com/file-924800.html
p215
aVhttps://www.feemoo.com/file-898821.html
p216
aVhttps://www.feemoo.com/file-888538.html
p217
aVhttps://www.feemoo.com/file-921565.html
p218
aVhttps://www.feemoo.com/file-887730.html
p219
aVhttps://www.feemoo.com/file-921574.html
p220
aVhttps://www.feemoo.com/file-894347.html
p221
aVhttps://www.feemoo.com/file-907693.html
p222
aVhttps://www.feemoo.com/file-926299.html
p223
aVhttps://www.feemoo.com/file-895143.html
p224
aVhttps://www.feemoo.com/file-898823.html
p225
aVhttps://www.feemoo.com/file-910272.html
p226
aVhttps://www.feemoo.com/file-902870.html
p227
aVhttps://www.feemoo.com/file-914038.html
p228
aVhttps://www.feemoo.com/file-887758.html
p229
aVhttps://www.feemoo.com/file-919565.html
p230
atp231
Rp232
.